target datalayout = "e-m:e-p270:32:32-p271:32:32-p272:64:64-i64:64-i128:128-f80:128-n8:16:32:64-S128"
target triple = "x86_64-pc-linux-gnu"

@.str.20 = private unnamed_addr constant [44 x i8] c"could not send replication command \22%s\22: %s\00", align 1
@.str.29 = private unnamed_addr constant [16 x i8] c"IDENTIFY_SYSTEM\00", align 1
@.str.30 = private unnamed_addr constant [93 x i8] c"could not identify system: got %d rows and %d fields, expected %d rows and %d or more fields\00", align 1
@.str.31 = private unnamed_addr constant [6 x i8] c"%X/%X\00", align 1
@.str.32 = private unnamed_addr constant [46 x i8] c"could not parse write-ahead log location \22%s\22\00", align 1

; Function Attrs: inlinehint nounwind willreturn memory(read) uwtable
define available_externally i32 @atoi(ptr noundef nonnull %0) #6 {
  %2 = alloca ptr, align 8
  store ptr %0, ptr %2, align 8
  %3 = load ptr, ptr %2, align 8
  %4 = call i64 @strtol(ptr noundef %3, ptr noundef null, i32 noundef 10) #9
  %5 = trunc i64 %4 to i32
  ret i32 %5
}

; Function Attrs: nounwind uwtable
define dso_local zeroext i1 @RunIdentifySystem(ptr noundef %0, ptr noundef %1, ptr noundef %2, ptr noundef %3, ptr noundef %4) #0 {
  %6 = alloca i1, align 1
  %7 = alloca ptr, align 8
  %8 = alloca ptr, align 8
  %9 = alloca ptr, align 8
  %10 = alloca ptr, align 8
  %11 = alloca ptr, align 8
  %12 = alloca ptr, align 8
  %13 = alloca i32, align 4
  %14 = alloca i32, align 4
  %15 = alloca i32, align 4
  store ptr %0, ptr %7, align 8
  store ptr %1, ptr %8, align 8
  store ptr %2, ptr %9, align 8
  store ptr %3, ptr %10, align 8
  store ptr %4, ptr %11, align 8
  call void @llvm.lifetime.start.p0(i64 8, ptr %12) #9
  call void @llvm.lifetime.start.p0(i64 4, ptr %13) #9
  call void @llvm.lifetime.start.p0(i64 4, ptr %14) #9
  %16 = load ptr, ptr %7, align 8
  %17 = call ptr @PQexec(ptr noundef %16, ptr noundef @.str.29)
  store ptr %17, ptr %12, align 8
  %18 = load ptr, ptr %12, align 8
  %19 = call i32 @PQresultStatus(ptr noundef %18)
  %20 = icmp ne i32 %19, 2
  br i1 %20, label %21, label %25

21:                                               ; preds = %5
  %22 = load ptr, ptr %7, align 8
  %23 = call ptr @PQerrorMessage(ptr noundef %22)
  call void (i32, i32, ptr, ...) @pg_log_generic(i32 noundef 4, i32 noundef 0, ptr noundef @.str.20, ptr noundef @.str.29, ptr noundef %23)
  %24 = load ptr, ptr %12, align 8
  call void @PQclear(ptr noundef %24)
  store i1 false, ptr %6, align 1
  store i32 1, ptr %15, align 4
  br label %106

25:                                               ; preds = %5
  %26 = load ptr, ptr %12, align 8
  %27 = call i32 @PQntuples(ptr noundef %26)
  %28 = icmp ne i32 %27, 1
  br i1 %28, label %33, label %29

29:                                               ; preds = %25
  %30 = load ptr, ptr %12, align 8
  %31 = call i32 @PQnfields(ptr noundef %30)
  %32 = icmp slt i32 %31, 3
  br i1 %32, label %33, label %39

33:                                               ; preds = %29, %25
  %34 = load ptr, ptr %12, align 8
  %35 = call i32 @PQntuples(ptr noundef %34)
  %36 = load ptr, ptr %12, align 8
  %37 = call i32 @PQnfields(ptr noundef %36)
  call void (i32, i32, ptr, ...) @pg_log_generic(i32 noundef 4, i32 noundef 0, ptr noundef @.str.30, i32 noundef %35, i32 noundef %37, i32 noundef 1, i32 noundef 3)
  %38 = load ptr, ptr %12, align 8
  call void @PQclear(ptr noundef %38)
  store i1 false, ptr %6, align 1
  store i32 1, ptr %15, align 4
  br label %106

39:                                               ; preds = %29
  %40 = load ptr, ptr %8, align 8
  %41 = icmp ne ptr %40, null
  br i1 %41, label %42, label %47

42:                                               ; preds = %39
  %43 = load ptr, ptr %12, align 8
  %44 = call ptr @PQgetvalue(ptr noundef %43, i32 noundef 0, i32 noundef 0)
  %45 = call ptr @pg_strdup(ptr noundef %44)
  %46 = load ptr, ptr %8, align 8
  store ptr %45, ptr %46, align 8
  br label %47

47:                                               ; preds = %42, %39
  %48 = load ptr, ptr %9, align 8
  %49 = icmp ne ptr %48, null
  br i1 %49, label %50, label %55

50:                                               ; preds = %47
  %51 = load ptr, ptr %12, align 8
  %52 = call ptr @PQgetvalue(ptr noundef %51, i32 noundef 0, i32 noundef 1)
  %53 = call i32 @atoi(ptr noundef %52) #11
  %54 = load ptr, ptr %9, align 8
  store i32 %53, ptr %54, align 4
  br label %55

55:                                               ; preds = %50, %47
  %56 = load ptr, ptr %10, align 8
  %57 = icmp ne ptr %56, null
  br i1 %57, label %58, label %75

58:                                               ; preds = %55
  %59 = load ptr, ptr %12, align 8
  %60 = call ptr @PQgetvalue(ptr noundef %59, i32 noundef 0, i32 noundef 2)
  %61 = call i32 (ptr, ptr, ...) @__isoc99_sscanf(ptr noundef %60, ptr noundef @.str.31, ptr noundef %13, ptr noundef %14) #9
  %62 = icmp ne i32 %61, 2
  br i1 %62, label %63, label %67

63:                                               ; preds = %58
  %64 = load ptr, ptr %12, align 8
  %65 = call ptr @PQgetvalue(ptr noundef %64, i32 noundef 0, i32 noundef 2)
  call void (i32, i32, ptr, ...) @pg_log_generic(i32 noundef 4, i32 noundef 0, ptr noundef @.str.32, ptr noundef %65)
  %66 = load ptr, ptr %12, align 8
  call void @PQclear(ptr noundef %66)
  store i1 false, ptr %6, align 1
  store i32 1, ptr %15, align 4
  br label %106

67:                                               ; preds = %58
  %68 = load i32, ptr %13, align 4
  %69 = zext i32 %68 to i64
  %70 = shl i64 %69, 32
  %71 = load i32, ptr %14, align 4
  %72 = zext i32 %71 to i64
  %73 = or i64 %70, %72
  %74 = load ptr, ptr %10, align 8
  store i64 %73, ptr %74, align 8
  br label %75

75:                                               ; preds = %67, %55
  %76 = load ptr, ptr %11, align 8
  %77 = icmp ne ptr %76, null
  br i1 %77, label %78, label %104

78:                                               ; preds = %75
  %79 = load ptr, ptr %11, align 8
  store ptr null, ptr %79, align 8
  %80 = load ptr, ptr %7, align 8
  %81 = call i32 @PQserverVersion(ptr noundef %80)
  %82 = icmp sge i32 %81, 90400
  br i1 %82, label %83, label %103

83:                                               ; preds = %78
  %84 = load ptr, ptr %12, align 8
  %85 = call i32 @PQnfields(ptr noundef %84)
  %86 = icmp slt i32 %85, 4
  br i1 %86, label %87, label %93

87:                                               ; preds = %83
  %88 = load ptr, ptr %12, align 8
  %89 = call i32 @PQntuples(ptr noundef %88)
  %90 = load ptr, ptr %12, align 8
  %91 = call i32 @PQnfields(ptr noundef %90)
  call void (i32, i32, ptr, ...) @pg_log_generic(i32 noundef 4, i32 noundef 0, ptr noundef @.str.30, i32 noundef %89, i32 noundef %91, i32 noundef 1, i32 noundef 4)
  %92 = load ptr, ptr %12, align 8
  call void @PQclear(ptr noundef %92)
  store i1 false, ptr %6, align 1
  store i32 1, ptr %15, align 4
  br label %106

93:                                               ; preds = %83
  %94 = load ptr, ptr %12, align 8
  %95 = call i32 @PQgetisnull(ptr noundef %94, i32 noundef 0, i32 noundef 3)
  %96 = icmp ne i32 %95, 0
  br i1 %96, label %102, label %97

97:                                               ; preds = %93
  %98 = load ptr, ptr %12, align 8
  %99 = call ptr @PQgetvalue(ptr noundef %98, i32 noundef 0, i32 noundef 3)
  %100 = call ptr @pg_strdup(ptr noundef %99)
  %101 = load ptr, ptr %11, align 8
  store ptr %100, ptr %101, align 8
  br label %102

102:                                              ; preds = %97, %93
  br label %103

103:                                              ; preds = %102, %78
  br label %104

104:                                              ; preds = %103, %75
  %105 = load ptr, ptr %12, align 8
  call void @PQclear(ptr noundef %105)
  store i1 true, ptr %6, align 1
  store i32 1, ptr %15, align 4
  br label %106

106:                                              ; preds = %104, %87, %63, %33, %21
  call void @llvm.lifetime.end.p0(i64 4, ptr %14) #9
  call void @llvm.lifetime.end.p0(i64 4, ptr %13) #9
  call void @llvm.lifetime.end.p0(i64 8, ptr %12) #9
  %107 = load i1, ptr %6, align 1
  ret i1 %107
}