; Function Attrs: nounwind uwtable
define dso_local noundef zeroext i1 @RunIdentifySystem(ptr noundef %0, ptr noundef writeonly captures(address_is_null) %1, ptr noundef writeonly captures(address_is_null) %2, ptr noundef writeonly captures(address_is_null) %3, ptr noundef writeonly captures(address_is_null) %4) local_unnamed_addr #0 {
  %6 = alloca i32, align 4
  %7 = alloca i32, align 4
  call void @llvm.lifetime.start.p0(i64 4, ptr nonnull %6) #15
  call void @llvm.lifetime.start.p0(i64 4, ptr nonnull %7) #15
  %8 = tail call ptr @PQexec(ptr noundef %0, ptr noundef nonnull @.str.29) #15
  %9 = tail call i32 @PQresultStatus(ptr noundef %8) #15
  %.not = icmp eq i32 %9, 2
  br i1 %.not, label %12, label %10

10:                                               ; preds = %5
  %11 = tail call ptr @PQerrorMessage(ptr noundef %0) #15
  tail call void (i32, i32, ptr, ...) @pg_log_generic(i32 noundef 4, i32 noundef 0, ptr noundef nonnull @.str.20, ptr noundef nonnull @.str.29, ptr noundef %11) #15
  tail call void @PQclear(ptr noundef %8) #15
  br label %58

12:                                               ; preds = %5
  %13 = tail call i32 @PQntuples(ptr noundef %8) #15
  %.not36 = icmp eq i32 %13, 1
  br i1 %.not36, label %14, label %17

14:                                               ; preds = %12
  %15 = tail call i32 @PQnfields(ptr noundef %8) #15
  %16 = icmp slt i32 %15, 3
  br i1 %16, label %17, label %20

17:                                               ; preds = %14, %12
  %18 = tail call i32 @PQntuples(ptr noundef %8) #15
  %19 = tail call i32 @PQnfields(ptr noundef %8) #15
  tail call void (i32, i32, ptr, ...) @pg_log_generic(i32 noundef 4, i32 noundef 0, ptr noundef nonnull @.str.30, i32 noundef %18, i32 noundef %19, i32 noundef 1, i32 noundef 3) #15
  tail call void @PQclear(ptr noundef %8) #15
  br label %58

20:                                               ; preds = %14
  %.not37 = icmp eq ptr %1, null
  br i1 %.not37, label %24, label %21

21:                                               ; preds = %20
  %22 = tail call ptr @PQgetvalue(ptr noundef %8, i32 noundef 0, i32 noundef 0) #15
  %23 = tail call ptr @pg_strdup(ptr noundef %22) #15
  store ptr %23, ptr %1, align 8
  br label %24

24:                                               ; preds = %21, %20
  %.not38 = icmp eq ptr %2, null
  br i1 %.not38, label %29, label %25

25:                                               ; preds = %24
  %26 = tail call ptr @PQgetvalue(ptr noundef %8, i32 noundef 0, i32 noundef 1) #15
  %27 = tail call i64 @strtol(ptr noundef nonnull captures(none) %26, ptr noundef null, i32 noundef 10) #15
  %28 = trunc i64 %27 to i32
  store i32 %28, ptr %2, align 4
  br label %29

29:                                               ; preds = %25, %24
  %.not39 = icmp eq ptr %3, null
  br i1 %.not39, label %42, label %30

30:                                               ; preds = %29
  %31 = tail call ptr @PQgetvalue(ptr noundef %8, i32 noundef 0, i32 noundef 2) #15
  %32 = call i32 (ptr, ptr, ...) @__isoc99_sscanf(ptr noundef %31, ptr noundef nonnull @.str.31, ptr noundef nonnull %6, ptr noundef nonnull %7) #15
  %.not40 = icmp eq i32 %32, 2
  br i1 %.not40, label %35, label %33

33:                                               ; preds = %30
  %34 = call ptr @PQgetvalue(ptr noundef %8, i32 noundef 0, i32 noundef 2) #15
  call void (i32, i32, ptr, ...) @pg_log_generic(i32 noundef 4, i32 noundef 0, ptr noundef nonnull @.str.32, ptr noundef %34) #15
  call void @PQclear(ptr noundef %8) #15
  br label %58

35:                                               ; preds = %30
  %36 = load i32, ptr %6, align 4
  %37 = zext i32 %36 to i64
  %38 = shl nuw i64 %37, 32
  %39 = load i32, ptr %7, align 4
  %40 = zext i32 %39 to i64
  %41 = or disjoint i64 %38, %40
  store i64 %41, ptr %3, align 8
  br label %42

42:                                               ; preds = %35, %29
  %.not41 = icmp eq ptr %4, null
  br i1 %.not41, label %57, label %43

43:                                               ; preds = %42
  store ptr null, ptr %4, align 8
  %44 = call i32 @PQserverVersion(ptr noundef %0) #15
  %45 = icmp sgt i32 %44, 90399
  br i1 %45, label %46, label %57

46:                                               ; preds = %43
  %47 = call i32 @PQnfields(ptr noundef %8) #15
  %48 = icmp slt i32 %47, 4
  br i1 %48, label %49, label %52

49:                                               ; preds = %46
  %50 = call i32 @PQntuples(ptr noundef %8) #15
  %51 = call i32 @PQnfields(ptr noundef %8) #15
  call void (i32, i32, ptr, ...) @pg_log_generic(i32 noundef 4, i32 noundef 0, ptr noundef nonnull @.str.30, i32 noundef %50, i32 noundef %51, i32 noundef 1, i32 noundef 4) #15
  call void @PQclear(ptr noundef %8) #15
  br label %58

52:                                               ; preds = %46
  %53 = call i32 @PQgetisnull(ptr noundef %8, i32 noundef 0, i32 noundef 3) #15
  %.not42 = icmp eq i32 %53, 0
  br i1 %.not42, label %54, label %57

54:                                               ; preds = %52
  %55 = call ptr @PQgetvalue(ptr noundef %8, i32 noundef 0, i32 noundef 3) #15
  %56 = call ptr @pg_strdup(ptr noundef %55) #15
  store ptr %56, ptr %4, align 8
  br label %57

57:                                               ; preds = %43, %54, %52, %42
  call void @PQclear(ptr noundef %8) #15
  br label %58

58:                                               ; preds = %57, %49, %33, %17, %10
  %.0 = phi i1 [ false, %10 ], [ false, %17 ], [ false, %33 ], [ false, %49 ], [ true, %57 ]
  call void @llvm.lifetime.end.p0(i64 4, ptr nonnull %7) #15
  call void @llvm.lifetime.end.p0(i64 4, ptr nonnull %6) #15
  ret i1 %.0
}